target datalayout = "e-m:e-p270:32:32-p271:32:32-p272:64:64-i64:64-i128:128-f80:128-n8:16:32:64-S128"
target triple = "x86_64-pc-linux-gnu"

@hf_gsm_a_b8spare = hidden global i32 0, align 4
@hf_gsm_a_call_prio = hidden global i32 0, align 4

; Function Attrs: null_pointer_is_valid sspstrong uwtable
define internal zeroext i16 @de_prio(ptr noundef %0, ptr noundef %1, ptr noundef %2, i32 noundef %3, i32 noundef %4, ptr noundef %5, i32 noundef %6) #1 {
  %8 = alloca ptr, align 8
  %9 = alloca ptr, align 8
  %10 = alloca ptr, align 8
  %11 = alloca i32, align 4
  %12 = alloca i32, align 4
  %13 = alloca ptr, align 8
  %14 = alloca i32, align 4
  %15 = alloca i32, align 4
  store ptr %0, ptr %8, align 8
  store ptr %1, ptr %9, align 8
  store ptr %2, ptr %10, align 8
  store i32 %3, ptr %11, align 4
  store i32 %4, ptr %12, align 4
  store ptr %5, ptr %13, align 8
  store i32 %6, ptr %14, align 4
  call void @llvm.lifetime.start.p0(i64 4, ptr %15) #9
  %16 = load i32, ptr %11, align 4
  store i32 %16, ptr %15, align 4
  %17 = load ptr, ptr %9, align 8
  %18 = load i32, ptr @hf_gsm_a_b8spare, align 4
  %19 = load ptr, ptr %8, align 8
  %20 = load i32, ptr %15, align 4
  %21 = call ptr @proto_tree_add_item(ptr noundef %17, i32 noundef %18, ptr noundef %19, i32 noundef %20, i32 noundef 1, i32 noundef 0)
  %22 = load ptr, ptr %9, align 8
  %23 = load i32, ptr @hf_gsm_a_call_prio, align 4
  %24 = load ptr, ptr %8, align 8
  %25 = load i32, ptr %15, align 4
  %26 = shl i32 %25, 3
  %27 = add i32 %26, 5
  %28 = call ptr @proto_tree_add_bits_item(ptr noundef %22, i32 noundef %23, ptr noundef %24, i32 noundef %27, i32 noundef 3, i32 noundef 0)
  %29 = load i32, ptr %15, align 4
  %30 = add i32 %29, 1
  store i32 %30, ptr %15, align 4
  %31 = load i32, ptr %15, align 4
  %32 = load i32, ptr %11, align 4
  %33 = sub i32 %31, %32
  %34 = trunc i32 %33 to i16
  call void @llvm.lifetime.end.p0(i64 4, ptr %15) #9
  ret i16 %34
}