; Function Attrs: null_pointer_is_valid sspstrong uwtable
define internal noundef zeroext i16 @de_prio(ptr noundef %0, ptr noundef %1, ptr readnone captures(none) %2, i32 noundef %3, i32 %4, ptr readnone captures(none) %5, i32 %6) #1 {
  %8 = load i32, ptr @hf_gsm_a_b8spare, align 4
  %9 = tail call ptr @proto_tree_add_item(ptr noundef %1, i32 noundef %8, ptr noundef %0, i32 noundef %3, i32 noundef 1, i32 noundef 0)
  %10 = load i32, ptr @hf_gsm_a_call_prio, align 4
  %11 = shl i32 %3, 3
  %12 = or disjoint i32 %11, 5
  %13 = tail call ptr @proto_tree_add_bits_item(ptr noundef %1, i32 noundef %10, ptr noundef %0, i32 noundef %12, i32 noundef 3, i32 noundef 0)
  ret i16 1
}